; Function Attrs: mustprogress nounwind uwtable
define void @_ZN17RichParameterListD2Ev(ptr noundef nonnull align 8 dereferenceable(24) %0) unnamed_addr #4 align 2 personality ptr @__gxx_personality_v0 {
  %.sroa.04.07.i = load ptr, ptr %0, align 8
  %.not8.i = icmp eq ptr %.sroa.04.07.i, %0
  br i1 %.not8.i, label %_ZNSt7__cxx114listIP13RichParameterSaIS2_EED2Ev.exit, label %.lr.ph.i

.lr.ph.i:                                         ; preds = %1, %9
  %.sroa.04.09.i = phi ptr [ %.sroa.04.0.i, %9 ], [ %.sroa.04.07.i, %1 ]
  %2 = getelementptr inbounds i8, ptr %.sroa.04.09.i, i64 16
  %3 = load ptr, ptr %2, align 8
  %4 = icmp eq ptr %3, null
  br i1 %4, label %9, label %5

5:                                                ; preds = %.lr.ph.i
  %6 = load ptr, ptr %3, align 8
  %7 = getelementptr inbounds i8, ptr %6, i64 8
  %8 = load ptr, ptr %7, align 8
  tail call void %8(ptr noundef nonnull align 8 dereferenceable(56) %3) #22
  br label %9

9:                                                ; preds = %5, %.lr.ph.i
  %.sroa.04.0.i = load ptr, ptr %.sroa.04.09.i, align 8
  %.not.i = icmp eq ptr %.sroa.04.0.i, %0
  br i1 %.not.i, label %._crit_edge.i, label %.lr.ph.i

._crit_edge.i:                                    ; preds = %9
  %.pre.i = load ptr, ptr %0, align 8
  %.not8.i.i.i = icmp eq ptr %.pre.i, %0
  br i1 %.not8.i.i.i, label %_ZNSt7__cxx114listIP13RichParameterSaIS2_EED2Ev.exit, label %.lr.ph.i.i.i

.lr.ph.i.i.i:                                     ; preds = %._crit_edge.i, %.lr.ph.i.i.i
  %.09.i.i.i = phi ptr [ %10, %.lr.ph.i.i.i ], [ %.pre.i, %._crit_edge.i ]
  %10 = load ptr, ptr %.09.i.i.i, align 8
  tail call void @_ZdlPv(ptr noundef %.09.i.i.i) #21
  %.not.i.i.i = icmp eq ptr %10, %0
  br i1 %.not.i.i.i, label %_ZNSt7__cxx114listIP13RichParameterSaIS2_EED2Ev.exit, label %.lr.ph.i.i.i, !llvm.loop !10

_ZNSt7__cxx114listIP13RichParameterSaIS2_EED2Ev.exit: ; preds = %.lr.ph.i.i.i, %._crit_edge.i, %1
  %11 = getelementptr inbounds i8, ptr %0, i64 8
  store ptr %0, ptr %11, align 8
  store ptr %0, ptr %0, align 8
  %12 = getelementptr inbounds i8, ptr %0, i64 16
  store i64 0, ptr %12, align 8
  ret void
}